target datalayout = "e-m:e-p270:32:32-p271:32:32-p272:64:64-i64:64-i128:128-f80:128-n8:16:32:64-S128"
target triple = "x86_64-pc-linux-gnu"

%struct.Abc_Ntk_t_ = type { i32, i32, ptr, ptr, ptr, ptr, ptr, ptr, ptr, ptr, ptr, ptr, ptr, [11 x i32], i32, i32, i32, i32, ptr, i32, ptr, ptr, i32, i32, i32, double, i32, %struct.Vec_Int_t_, ptr, ptr, ptr, ptr, ptr, float, i32, ptr, ptr, ptr, ptr, ptr, ptr, ptr, ptr, ptr, ptr, ptr, ptr, ptr, ptr, ptr, ptr, ptr, ptr, ptr, ptr, ptr }
%struct.Vec_Int_t_ = type { i32, i32, ptr }
%struct.Abc_ManTime_t_ = type { %struct.Abc_Time_t_, %struct.Abc_Time_t_, ptr, ptr, %struct.Abc_Time_t_, %struct.Abc_Time_t_, ptr, ptr }
%struct.Abc_Time_t_ = type { float, float }
%struct.Abc_Obj_t_ = type { ptr, ptr, i32, i32, %struct.Vec_Int_t_, %struct.Vec_Int_t_, %union.anon, %union.anon.0 }
%union.anon = type { ptr }
%union.anon.0 = type { ptr }
%struct.Vec_Ptr_t_ = type { i32, i32, ptr }

; Function Attrs: nounwind uwtable
define internal float @Abc_MaxFloat(float noundef %0, float noundef %1) #0 {
  %3 = alloca float, align 4
  %4 = alloca float, align 4
  store float %0, ptr %3, align 4
  store float %1, ptr %4, align 4
  %5 = load float, ptr %3, align 4
  %6 = load float, ptr %4, align 4
  %7 = fcmp ogt float %5, %6
  br i1 %7, label %8, label %10

8:                                                ; preds = %2
  %9 = load float, ptr %3, align 4
  br label %12

10:                                               ; preds = %2
  %11 = load float, ptr %4, align 4
  br label %12

12:                                               ; preds = %10, %8
  %13 = phi float [ %9, %8 ], [ %11, %10 ]
  ret float %13
}

; Function Attrs: nounwind uwtable
define internal ptr @Abc_NodeArrival(ptr noundef %0) #0 {
  %2 = alloca ptr, align 8
  store ptr %0, ptr %2, align 8
  %3 = load ptr, ptr %2, align 8
  %4 = getelementptr inbounds %struct.Abc_Obj_t_, ptr %3, i32 0, i32 0
  %5 = load ptr, ptr %4, align 8
  %6 = getelementptr inbounds %struct.Abc_Ntk_t_, ptr %5, i32 0, i32 31
  %7 = load ptr, ptr %6, align 8
  %8 = getelementptr inbounds %struct.Abc_ManTime_t_, ptr %7, i32 0, i32 2
  %9 = load ptr, ptr %8, align 8
  %10 = getelementptr inbounds %struct.Vec_Ptr_t_, ptr %9, i32 0, i32 2
  %11 = load ptr, ptr %10, align 8
  %12 = load ptr, ptr %2, align 8
  %13 = getelementptr inbounds %struct.Abc_Obj_t_, ptr %12, i32 0, i32 2
  %14 = load i32, ptr %13, align 8
  %15 = sext i32 %14 to i64
  %16 = getelementptr inbounds ptr, ptr %11, i64 %15
  %17 = load ptr, ptr %16, align 8
  ret ptr %17
}

; Function Attrs: nounwind uwtable
define float @Abc_NodeReadArrivalWorst(ptr noundef %0) #0 {
  %2 = alloca ptr, align 8
  store ptr %0, ptr %2, align 8
  %3 = load ptr, ptr %2, align 8
  %4 = call ptr @Abc_NodeArrival(ptr noundef %3)
  %5 = getelementptr inbounds %struct.Abc_Time_t_, ptr %4, i32 0, i32 0
  %6 = load float, ptr %5, align 4
  %7 = load ptr, ptr %2, align 8
  %8 = call ptr @Abc_NodeArrival(ptr noundef %7)
  %9 = getelementptr inbounds %struct.Abc_Time_t_, ptr %8, i32 0, i32 1
  %10 = load float, ptr %9, align 4
  %11 = call float @Abc_MaxFloat(float noundef %6, float noundef %10)
  ret float %11
}