; Function Attrs: mustprogress nofree norecurse nosync nounwind willreturn memory(read, inaccessiblemem: none) uwtable
define float @Abc_NodeReadArrivalWorst(ptr noundef readonly captures(none) %0) local_unnamed_addr #1 {
  %.val3 = load ptr, ptr %0, align 8
  %2 = getelementptr i8, ptr %0, i64 16
  %.val4 = load i32, ptr %2, align 8
  %3 = getelementptr i8, ptr %.val3, i64 264
  %.val3.val = load ptr, ptr %3, align 8
  %4 = getelementptr i8, ptr %.val3.val, i64 16
  %.val3.val.val = load ptr, ptr %4, align 8
  %5 = getelementptr i8, ptr %.val3.val.val, i64 8
  %.val3.val.val.val = load ptr, ptr %5, align 8
  %6 = sext i32 %.val4 to i64
  %7 = getelementptr inbounds ptr, ptr %.val3.val.val.val, i64 %6
  %8 = load ptr, ptr %7, align 8
  %9 = load float, ptr %8, align 4
  %10 = getelementptr inbounds nuw i8, ptr %8, i64 4
  %11 = load float, ptr %10, align 4
  %12 = fcmp ogt float %9, %11
  %13 = select i1 %12, float %9, float %11
  ret float %13
}